; Function Attrs: mustprogress uwtable
define hidden noundef i64 @_ZNK19OpenColorIO_v2_4dev11Lut1DOpData13Lut3by1DArray12getNumValuesEv(ptr noundef nonnull align 8 dereferenceable(48) %this) unnamed_addr #3 align 2 {
entry:
  %vtable = load ptr, ptr %this, align 8
  %vfn = getelementptr inbounds i8, ptr %vtable, i64 32
  %0 = load ptr, ptr %vfn, align 8
  %call = tail call noundef i64 %0(ptr noundef nonnull align 8 dereferenceable(48) %this)
  %mul = mul i64 %call, 3
  ret i64 %mul
}